target datalayout = "e-m:e-p270:32:32-p271:32:32-p272:64:64-i64:64-i128:128-f80:128-n8:16:32:64-S128"
target triple = "x86_64-pc-linux-gnu"

%struct.ws_intervals = type { ptr, i32, i32 }
%struct.ws_interval = type { i64, i64, i32, i32, i32, i32, i32, i32, i32 }

; Function Attrs: nounwind uwtable
define internal ptr @alloc_array_elem(ptr noundef %0, i64 noundef %1, ptr noundef %2, ptr noundef %3) #1 {
  %5 = alloca ptr, align 8
  %6 = alloca ptr, align 8
  %7 = alloca i64, align 8
  %8 = alloca ptr, align 8
  %9 = alloca ptr, align 8
  %10 = alloca ptr, align 8
  %11 = alloca i32, align 4
  %12 = alloca i32, align 4
  store ptr %0, ptr %6, align 8, !tbaa !166
  store i64 %1, ptr %7, align 8, !tbaa !96
  store ptr %2, ptr %8, align 8, !tbaa !167
  store ptr %3, ptr %9, align 8, !tbaa !167
  call void @llvm.lifetime.start.p0(i64 8, ptr %10) #13
  %13 = load ptr, ptr %8, align 8, !tbaa !167
  %14 = load i32, ptr %13, align 4, !tbaa !14
  %15 = load ptr, ptr %9, align 8, !tbaa !167
  %16 = load i32, ptr %15, align 4, !tbaa !14
  %17 = icmp eq i32 %14, %16
  br i1 %17, label %18, label %67

18:                                               ; preds = %4
  call void @llvm.lifetime.start.p0(i64 4, ptr %11) #13
  %19 = load ptr, ptr %9, align 8, !tbaa !167
  %20 = load i32, ptr %19, align 4, !tbaa !14
  %21 = icmp sgt i32 %20, 1073741823
  br i1 %21, label %22, label %23

22:                                               ; preds = %18
  br label %26

23:                                               ; preds = %18
  %24 = load ptr, ptr %9, align 8, !tbaa !167
  %25 = load i32, ptr %24, align 4, !tbaa !14
  br label %26

26:                                               ; preds = %23, %22
  %27 = phi i32 [ 1073741823, %22 ], [ %25, %23 ]
  %28 = mul nsw i32 %27, 2
  %29 = icmp sgt i32 32, %28
  br i1 %29, label %30, label %31

30:                                               ; preds = %26
  br label %42

31:                                               ; preds = %26
  %32 = load ptr, ptr %9, align 8, !tbaa !167
  %33 = load i32, ptr %32, align 4, !tbaa !14
  %34 = icmp sgt i32 %33, 1073741823
  br i1 %34, label %35, label %36

35:                                               ; preds = %31
  br label %39

36:                                               ; preds = %31
  %37 = load ptr, ptr %9, align 8, !tbaa !167
  %38 = load i32, ptr %37, align 4, !tbaa !14
  br label %39

39:                                               ; preds = %36, %35
  %40 = phi i32 [ 1073741823, %35 ], [ %38, %36 ]
  %41 = mul nsw i32 %40, 2
  br label %42

42:                                               ; preds = %39, %30
  %43 = phi i32 [ 32, %30 ], [ %41, %39 ]
  store i32 %43, ptr %11, align 4, !tbaa !14
  %44 = load ptr, ptr %8, align 8, !tbaa !167
  %45 = load i32, ptr %44, align 4, !tbaa !14
  %46 = load i32, ptr %11, align 4, !tbaa !14
  %47 = icmp sge i32 %45, %46
  br i1 %47, label %48, label %49

48:                                               ; preds = %42
  store ptr null, ptr %5, align 8
  store i32 1, ptr %12, align 4
  br label %64

49:                                               ; preds = %42
  %50 = load ptr, ptr %6, align 8, !tbaa !166
  %51 = load ptr, ptr %50, align 8, !tbaa !73
  %52 = load i32, ptr %11, align 4, !tbaa !14
  %53 = sext i32 %52 to i64
  %54 = load i64, ptr %7, align 8, !tbaa !96
  %55 = call ptr @av_realloc_f(ptr noundef %51, i64 noundef %53, i64 noundef %54)
  %56 = load ptr, ptr %6, align 8, !tbaa !166
  store ptr %55, ptr %56, align 8, !tbaa !73
  %57 = load ptr, ptr %6, align 8, !tbaa !166
  %58 = load ptr, ptr %57, align 8, !tbaa !73
  %59 = icmp ne ptr %58, null
  br i1 %59, label %61, label %60

60:                                               ; preds = %49
  store ptr null, ptr %5, align 8
  store i32 1, ptr %12, align 4
  br label %64

61:                                               ; preds = %49
  %62 = load i32, ptr %11, align 4, !tbaa !14
  %63 = load ptr, ptr %9, align 8, !tbaa !167
  store i32 %62, ptr %63, align 4, !tbaa !14
  store i32 0, ptr %12, align 4
  br label %64

64:                                               ; preds = %61, %60, %48
  call void @llvm.lifetime.end.p0(i64 4, ptr %11) #13
  %65 = load i32, ptr %12, align 4
  switch i32 %65, label %82 [
    i32 0, label %66
  ]

66:                                               ; preds = %64
  br label %67

67:                                               ; preds = %66, %4
  %68 = load ptr, ptr %6, align 8, !tbaa !166
  %69 = load ptr, ptr %68, align 8, !tbaa !73
  %70 = load i64, ptr %7, align 8, !tbaa !96
  %71 = load ptr, ptr %8, align 8, !tbaa !167
  %72 = load i32, ptr %71, align 4, !tbaa !14
  %73 = sext i32 %72 to i64
  %74 = mul i64 %70, %73
  %75 = getelementptr inbounds nuw i8, ptr %69, i64 %74
  store ptr %75, ptr %10, align 8, !tbaa !73
  %76 = load ptr, ptr %10, align 8, !tbaa !73
  %77 = load i64, ptr %7, align 8, !tbaa !96
  call void @llvm.memset.p0.i64(ptr align 1 %76, i8 0, i64 %77, i1 false)
  %78 = load ptr, ptr %8, align 8, !tbaa !167
  %79 = load i32, ptr %78, align 4, !tbaa !14
  %80 = add nsw i32 %79, 1
  store i32 %80, ptr %78, align 4, !tbaa !14
  %81 = load ptr, ptr %10, align 8, !tbaa !73
  store ptr %81, ptr %5, align 8
  store i32 1, ptr %12, align 4
  br label %82

82:                                               ; preds = %67, %64
  call void @llvm.lifetime.end.p0(i64 8, ptr %10) #13
  %83 = load ptr, ptr %5, align 8
  ret ptr %83
}

; Function Attrs: nounwind uwtable
define internal i32 @add_interval(ptr noundef %0, i32 noundef %1, i32 noundef %2, i32 noundef %3, i64 noundef %4, i32 noundef %5, i32 noundef %6, i64 noundef %7, i32 noundef %8, i32 noundef %9) #1 {
  %11 = alloca i32, align 4
  %12 = alloca ptr, align 8
  %13 = alloca i32, align 4
  %14 = alloca i32, align 4
  %15 = alloca i32, align 4
  %16 = alloca i64, align 8
  %17 = alloca i32, align 4
  %18 = alloca i32, align 4
  %19 = alloca i64, align 8
  %20 = alloca i32, align 4
  %21 = alloca i32, align 4
  %22 = alloca ptr, align 8
  %23 = alloca ptr, align 8
  %24 = alloca i32, align 4
  store ptr %0, ptr %12, align 8, !tbaa !200
  store i32 %1, ptr %13, align 4, !tbaa !14
  store i32 %2, ptr %14, align 4, !tbaa !14
  store i32 %3, ptr %15, align 4, !tbaa !14
  store i64 %4, ptr %16, align 8, !tbaa !96
  store i32 %5, ptr %17, align 4, !tbaa !14
  store i32 %6, ptr %18, align 4, !tbaa !14
  store i64 %7, ptr %19, align 8, !tbaa !96
  store i32 %8, ptr %20, align 4, !tbaa !14
  store i32 %9, ptr %21, align 4, !tbaa !14
  call void @llvm.lifetime.start.p0(i64 8, ptr %22) #13
  call void @llvm.lifetime.start.p0(i64 8, ptr %23) #13
  %25 = load i32, ptr %15, align 4, !tbaa !14
  %26 = icmp sge i32 %25, 0
  br i1 %26, label %27, label %93

27:                                               ; preds = %10
  %28 = load ptr, ptr %12, align 8, !tbaa !200
  %29 = getelementptr inbounds nuw %struct.ws_intervals, ptr %28, i32 0, i32 0
  %30 = load ptr, ptr %29, align 8, !tbaa !90
  %31 = load i32, ptr %15, align 4, !tbaa !14
  %32 = sext i32 %31 to i64
  %33 = getelementptr inbounds %struct.ws_interval, ptr %30, i64 %32
  store ptr %33, ptr %23, align 8, !tbaa !259
  %34 = load ptr, ptr %23, align 8, !tbaa !259
  %35 = getelementptr inbounds nuw %struct.ws_interval, ptr %34, i32 0, i32 2
  %36 = load i32, ptr %35, align 8, !tbaa !218
  %37 = load i32, ptr %13, align 4, !tbaa !14
  %38 = icmp eq i32 %36, %37
  br i1 %38, label %39, label %92

39:                                               ; preds = %27
  %40 = load ptr, ptr %23, align 8, !tbaa !259
  %41 = getelementptr inbounds nuw %struct.ws_interval, ptr %40, i32 0, i32 3
  %42 = load i32, ptr %41, align 4, !tbaa !224
  %43 = load i32, ptr %14, align 4, !tbaa !14
  %44 = icmp eq i32 %42, %43
  br i1 %44, label %45, label %92

45:                                               ; preds = %39
  %46 = load ptr, ptr %23, align 8, !tbaa !259
  %47 = getelementptr inbounds nuw %struct.ws_interval, ptr %46, i32 0, i32 4
  %48 = load i32, ptr %47, align 8, !tbaa !225
  %49 = load ptr, ptr %23, align 8, !tbaa !259
  %50 = getelementptr inbounds nuw %struct.ws_interval, ptr %49, i32 0, i32 5
  %51 = load i32, ptr %50, align 4, !tbaa !226
  %52 = icmp eq i32 %48, %51
  br i1 %52, label %53, label %92

53:                                               ; preds = %45
  %54 = load ptr, ptr %23, align 8, !tbaa !259
  %55 = getelementptr inbounds nuw %struct.ws_interval, ptr %54, i32 0, i32 5
  %56 = load i32, ptr %55, align 4, !tbaa !226
  %57 = load i32, ptr %17, align 4, !tbaa !14
  %58 = icmp eq i32 %56, %57
  br i1 %58, label %59, label %92

59:                                               ; preds = %53
  %60 = load i32, ptr %17, align 4, !tbaa !14
  %61 = load i32, ptr %20, align 4, !tbaa !14
  %62 = icmp eq i32 %60, %61
  br i1 %62, label %63, label %92

63:                                               ; preds = %59
  %64 = load ptr, ptr %23, align 8, !tbaa !259
  %65 = getelementptr inbounds nuw %struct.ws_interval, ptr %64, i32 0, i32 6
  %66 = load i32, ptr %65, align 8, !tbaa !227
  %67 = load ptr, ptr %23, align 8, !tbaa !259
  %68 = getelementptr inbounds nuw %struct.ws_interval, ptr %67, i32 0, i32 7
  %69 = load i32, ptr %68, align 4, !tbaa !228
  %70 = icmp eq i32 %66, %69
  br i1 %70, label %71, label %92

71:                                               ; preds = %63
  %72 = load ptr, ptr %23, align 8, !tbaa !259
  %73 = getelementptr inbounds nuw %struct.ws_interval, ptr %72, i32 0, i32 7
  %74 = load i32, ptr %73, align 4, !tbaa !228
  %75 = load i32, ptr %18, align 4, !tbaa !14
  %76 = icmp eq i32 %74, %75
  br i1 %76, label %77, label %92

77:                                               ; preds = %71
  %78 = load i32, ptr %18, align 4, !tbaa !14
  %79 = load i32, ptr %21, align 4, !tbaa !14
  %80 = icmp eq i32 %78, %79
  br i1 %80, label %81, label %92

81:                                               ; preds = %77
  %82 = load ptr, ptr %23, align 8, !tbaa !259
  %83 = getelementptr inbounds nuw %struct.ws_interval, ptr %82, i32 0, i32 1
  %84 = load i64, ptr %83, align 8, !tbaa !223
  %85 = load i64, ptr %16, align 8, !tbaa !96
  %86 = icmp eq i64 %84, %85
  br i1 %86, label %87, label %92

87:                                               ; preds = %81
  %88 = load i64, ptr %19, align 8, !tbaa !96
  %89 = load ptr, ptr %23, align 8, !tbaa !259
  %90 = getelementptr inbounds nuw %struct.ws_interval, ptr %89, i32 0, i32 1
  store i64 %88, ptr %90, align 8, !tbaa !223
  %91 = load i32, ptr %15, align 4, !tbaa !14
  store i32 %91, ptr %11, align 4
  store i32 1, ptr %24, align 4
  br label %148

92:                                               ; preds = %81, %77, %71, %63, %59, %53, %45, %39, %27
  br label %93

93:                                               ; preds = %92, %10
  %94 = load ptr, ptr %12, align 8, !tbaa !200
  %95 = getelementptr inbounds nuw %struct.ws_intervals, ptr %94, i32 0, i32 0
  %96 = load ptr, ptr %12, align 8, !tbaa !200
  %97 = getelementptr inbounds nuw %struct.ws_intervals, ptr %96, i32 0, i32 1
  %98 = load ptr, ptr %12, align 8, !tbaa !200
  %99 = getelementptr inbounds nuw %struct.ws_intervals, ptr %98, i32 0, i32 2
  %100 = call ptr @alloc_array_elem(ptr noundef %95, i64 noundef 48, ptr noundef %97, ptr noundef %99)
  store ptr %100, ptr %22, align 8, !tbaa !259
  %101 = load ptr, ptr %22, align 8, !tbaa !259
  %102 = icmp ne ptr %101, null
  br i1 %102, label %104, label %103

103:                                              ; preds = %93
  store i32 -12, ptr %11, align 4
  store i32 1, ptr %24, align 4
  br label %148

104:                                              ; preds = %93
  %105 = load i64, ptr %16, align 8, !tbaa !96
  %106 = load ptr, ptr %22, align 8, !tbaa !259
  %107 = getelementptr inbounds nuw %struct.ws_interval, ptr %106, i32 0, i32 0
  store i64 %105, ptr %107, align 8, !tbaa !222
  %108 = load i64, ptr %19, align 8, !tbaa !96
  %109 = load ptr, ptr %22, align 8, !tbaa !259
  %110 = getelementptr inbounds nuw %struct.ws_interval, ptr %109, i32 0, i32 1
  store i64 %108, ptr %110, align 8, !tbaa !223
  %111 = load i32, ptr %13, align 4, !tbaa !14
  %112 = load ptr, ptr %22, align 8, !tbaa !259
  %113 = getelementptr inbounds nuw %struct.ws_interval, ptr %112, i32 0, i32 2
  store i32 %111, ptr %113, align 8, !tbaa !218
  %114 = load i32, ptr %14, align 4, !tbaa !14
  %115 = load ptr, ptr %22, align 8, !tbaa !259
  %116 = getelementptr inbounds nuw %struct.ws_interval, ptr %115, i32 0, i32 3
  store i32 %114, ptr %116, align 4, !tbaa !224
  %117 = load i32, ptr %17, align 4, !tbaa !14
  %118 = load ptr, ptr %22, align 8, !tbaa !259
  %119 = getelementptr inbounds nuw %struct.ws_interval, ptr %118, i32 0, i32 4
  store i32 %117, ptr %119, align 8, !tbaa !225
  %120 = load i32, ptr %20, align 4, !tbaa !14
  %121 = load ptr, ptr %22, align 8, !tbaa !259
  %122 = getelementptr inbounds nuw %struct.ws_interval, ptr %121, i32 0, i32 5
  store i32 %120, ptr %122, align 4, !tbaa !226
  %123 = load i32, ptr %18, align 4, !tbaa !14
  %124 = load ptr, ptr %22, align 8, !tbaa !259
  %125 = getelementptr inbounds nuw %struct.ws_interval, ptr %124, i32 0, i32 6
  store i32 %123, ptr %125, align 8, !tbaa !227
  %126 = load i32, ptr %21, align 4, !tbaa !14
  %127 = load ptr, ptr %22, align 8, !tbaa !259
  %128 = getelementptr inbounds nuw %struct.ws_interval, ptr %127, i32 0, i32 7
  store i32 %126, ptr %128, align 4, !tbaa !228
  %129 = load i32, ptr %15, align 4, !tbaa !14
  %130 = icmp sge i32 %129, 0
  br i1 %130, label %131, label %134

131:                                              ; preds = %104
  %132 = load i32, ptr %15, align 4, !tbaa !14
  %133 = or i32 %132, -2147483648
  br label %135

134:                                              ; preds = %104
  br label %135

135:                                              ; preds = %134, %131
  %136 = phi i32 [ %133, %131 ], [ 0, %134 ]
  %137 = load ptr, ptr %22, align 8, !tbaa !259
  %138 = getelementptr inbounds nuw %struct.ws_interval, ptr %137, i32 0, i32 8
  store i32 %136, ptr %138, align 8, !tbaa !229
  %139 = load ptr, ptr %22, align 8, !tbaa !259
  %140 = load ptr, ptr %12, align 8, !tbaa !200
  %141 = getelementptr inbounds nuw %struct.ws_intervals, ptr %140, i32 0, i32 0
  %142 = load ptr, ptr %141, align 8, !tbaa !90
  %143 = ptrtoint ptr %139 to i64
  %144 = ptrtoint ptr %142 to i64
  %145 = sub i64 %143, %144
  %146 = sdiv exact i64 %145, 48
  %147 = trunc i64 %146 to i32
  store i32 %147, ptr %11, align 4
  store i32 1, ptr %24, align 4
  br label %148

148:                                              ; preds = %135, %103, %87
  call void @llvm.lifetime.end.p0(i64 8, ptr %23) #13
  call void @llvm.lifetime.end.p0(i64 8, ptr %22) #13
  %149 = load i32, ptr %11, align 4
  ret i32 %149
}