; Function Attrs: nounwind uwtable
define internal fastcc i32 @add_interval(ptr noundef nonnull captures(none) %0, i32 noundef range(i32 1162758483, 1397313359) %1, i32 noundef range(i32 1, 4) %2, i32 noundef %3, i64 noundef %4, i32 noundef %5, i32 noundef %6, i64 noundef %7, i32 noundef %8, i32 noundef %9) unnamed_addr #1 {
  %11 = icmp sgt i32 %3, -1
  br i1 %11, label %12, label %44

12:                                               ; preds = %10
  %13 = load ptr, ptr %0, align 8, !tbaa !146
  %14 = zext nneg i32 %3 to i64
  %15 = getelementptr inbounds nuw %struct.ws_interval, ptr %13, i64 %14
  %16 = getelementptr inbounds nuw i8, ptr %15, i64 16
  %17 = load i32, ptr %16, align 8, !tbaa !133
  %18 = icmp eq i32 %17, %1
  br i1 %18, label %19, label %44

19:                                               ; preds = %12
  %20 = getelementptr inbounds nuw i8, ptr %15, i64 20
  %21 = load i32, ptr %20, align 4, !tbaa !139
  %22 = icmp eq i32 %21, %2
  br i1 %22, label %23, label %44

23:                                               ; preds = %19
  %24 = getelementptr inbounds nuw i8, ptr %15, i64 24
  %25 = load i32, ptr %24, align 8, !tbaa !140
  %26 = getelementptr inbounds nuw i8, ptr %15, i64 28
  %27 = load i32, ptr %26, align 4, !tbaa !141
  %28 = icmp eq i32 %25, %27
  %29 = icmp eq i32 %27, %5
  %or.cond = and i1 %28, %29
  %30 = icmp eq i32 %5, %8
  %or.cond55 = and i1 %30, %or.cond
  br i1 %or.cond55, label %31, label %44

31:                                               ; preds = %23
  %32 = getelementptr inbounds nuw i8, ptr %15, i64 32
  %33 = load i32, ptr %32, align 8, !tbaa !142
  %34 = getelementptr inbounds nuw i8, ptr %15, i64 36
  %35 = load i32, ptr %34, align 4, !tbaa !143
  %36 = icmp eq i32 %33, %35
  %37 = icmp eq i32 %35, %6
  %or.cond56 = and i1 %36, %37
  %38 = icmp eq i32 %6, %9
  %or.cond57 = and i1 %38, %or.cond56
  br i1 %or.cond57, label %39, label %44

39:                                               ; preds = %31
  %40 = getelementptr inbounds nuw i8, ptr %15, i64 8
  %41 = load i64, ptr %40, align 8, !tbaa !138
  %42 = icmp eq i64 %41, %4
  br i1 %42, label %43, label %44

43:                                               ; preds = %39
  store i64 %7, ptr %40, align 8, !tbaa !138
  br label %alloc_array_elem.exit.thread

44:                                               ; preds = %12, %19, %23, %31, %39, %10
  %45 = getelementptr inbounds nuw i8, ptr %0, i64 8
  %46 = getelementptr inbounds nuw i8, ptr %0, i64 12
  %47 = load i32, ptr %45, align 4, !tbaa !45
  %48 = load i32, ptr %46, align 4, !tbaa !45
  %49 = icmp eq i32 %47, %48
  br i1 %49, label %50, label %._crit_edge.i

._crit_edge.i:                                    ; preds = %44
  %.pre.i = load ptr, ptr %0, align 8, !tbaa !115
  br label %alloc_array_elem.exit

50:                                               ; preds = %44
  %51 = icmp slt i32 %47, 16
  %52 = tail call i32 @llvm.smin.i32(i32 %47, i32 1073741823)
  %spec.select28.i = shl i32 %52, 1
  %53 = select i1 %51, i32 32, i32 %spec.select28.i
  %.not.i = icmp slt i32 %47, %53
  br i1 %.not.i, label %54, label %alloc_array_elem.exit.thread

54:                                               ; preds = %50
  %55 = load ptr, ptr %0, align 8, !tbaa !115
  %56 = sext i32 %53 to i64
  %57 = tail call ptr @av_realloc_f(ptr noundef %55, i64 noundef %56, i64 noundef 48) #16
  store ptr %57, ptr %0, align 8, !tbaa !115
  %.not27.i = icmp eq ptr %57, null
  br i1 %.not27.i, label %alloc_array_elem.exit.thread, label %.critedge.i

.critedge.i:                                      ; preds = %54
  store i32 %53, ptr %46, align 4, !tbaa !45
  %.pre29.i = load i32, ptr %45, align 4, !tbaa !45
  br label %alloc_array_elem.exit

alloc_array_elem.exit:                            ; preds = %._crit_edge.i, %.critedge.i
  %58 = phi i32 [ %47, %._crit_edge.i ], [ %.pre29.i, %.critedge.i ]
  %59 = phi ptr [ %.pre.i, %._crit_edge.i ], [ %57, %.critedge.i ]
  %60 = sext i32 %58 to i64
  %61 = mul nsw i64 %60, 48
  %62 = getelementptr inbounds nuw i8, ptr %59, i64 %61
  tail call void @llvm.memset.p0.i64(ptr noundef nonnull align 1 dereferenceable(48) %62, i8 0, i64 48, i1 false)
  %63 = load i32, ptr %45, align 4, !tbaa !45
  %64 = add nsw i32 %63, 1
  store i32 %64, ptr %45, align 4, !tbaa !45
  store i64 %4, ptr %62, align 8, !tbaa !137
  %65 = getelementptr inbounds nuw i8, ptr %62, i64 8
  store i64 %7, ptr %65, align 8, !tbaa !138
  %66 = getelementptr inbounds nuw i8, ptr %62, i64 16
  store i32 %1, ptr %66, align 8, !tbaa !133
  %67 = getelementptr inbounds nuw i8, ptr %62, i64 20
  store i32 %2, ptr %67, align 4, !tbaa !139
  %68 = getelementptr inbounds nuw i8, ptr %62, i64 24
  store i32 %5, ptr %68, align 8, !tbaa !140
  %69 = getelementptr inbounds nuw i8, ptr %62, i64 28
  store i32 %8, ptr %69, align 4, !tbaa !141
  %70 = getelementptr inbounds nuw i8, ptr %62, i64 32
  store i32 %6, ptr %70, align 8, !tbaa !142
  %71 = getelementptr inbounds nuw i8, ptr %62, i64 36
  store i32 %9, ptr %71, align 4, !tbaa !143
  %72 = or i32 %3, -2147483648
  %73 = select i1 %11, i32 %72, i32 0
  %74 = getelementptr inbounds nuw i8, ptr %62, i64 40
  store i32 %73, ptr %74, align 8, !tbaa !144
  %75 = load ptr, ptr %0, align 8, !tbaa !146
  %76 = ptrtoint ptr %62 to i64
  %77 = ptrtoint ptr %75 to i64
  %78 = sub i64 %76, %77
  %79 = sdiv exact i64 %78, 48
  %80 = trunc i64 %79 to i32
  br label %alloc_array_elem.exit.thread

alloc_array_elem.exit.thread:                     ; preds = %50, %54, %alloc_array_elem.exit, %43
  %.0 = phi i32 [ %3, %43 ], [ %80, %alloc_array_elem.exit ], [ -12, %54 ], [ -12, %50 ]
  ret i32 %.0
}